target datalayout = "e-m:e-p270:32:32-p271:32:32-p272:64:64-i64:64-i128:128-f80:128-n8:16:32:64-S128"
target triple = "x86_64-pc-linux-gnu"

%struct.psa_crypto_local_input_s = type { ptr, i64 }
%struct.psa_hash_operation_s = type { i32, %union.psa_driver_hash_context_t }
%union.psa_driver_hash_context_t = type { %struct.mbedtls_psa_hash_operation_t }
%struct.mbedtls_psa_hash_operation_t = type { i32, %union.anon.1 }
%union.anon.1 = type { %struct.mbedtls_sha512_context }
%struct.mbedtls_sha512_context = type { [2 x i64], [8 x i64], [128 x i8], i32 }
%struct.psa_mac_operation_s = type { i32, i8, i8, %union.psa_driver_mac_context_t }
%union.psa_driver_mac_context_t = type { %struct.mbedtls_psa_mac_operation_t }
%struct.mbedtls_psa_mac_operation_t = type { i32, %union.anon.2 }
%union.anon.2 = type { %struct.mbedtls_psa_hmac_operation_t }
%struct.mbedtls_psa_hmac_operation_t = type { i32, %struct.psa_hash_operation_s, [144 x i8] }

; Function Attrs: inlinehint nounwind uwtable
define internal i32 @psa_driver_wrapper_mac_abort(ptr noundef %0) #6 {
  %2 = alloca i32, align 4
  %3 = alloca ptr, align 8
  store ptr %0, ptr %3, align 8, !tbaa !75
  %4 = load ptr, ptr %3, align 8, !tbaa !75
  %5 = getelementptr inbounds nuw %struct.psa_mac_operation_s, ptr %4, i32 0, i32 0
  %6 = load i32, ptr %5, align 8, !tbaa !77
  switch i32 %6, label %11 [
    i32 1, label %7
  ]

7:                                                ; preds = %1
  %8 = load ptr, ptr %3, align 8, !tbaa !75
  %9 = getelementptr inbounds nuw %struct.psa_mac_operation_s, ptr %8, i32 0, i32 3
  %10 = call i32 @mbedtls_psa_mac_abort(ptr noundef %9)
  store i32 %10, ptr %2, align 4
  br label %12

11:                                               ; preds = %1
  store i32 -135, ptr %2, align 4
  br label %12

12:                                               ; preds = %11, %7
  %13 = load i32, ptr %2, align 4
  ret i32 %13
}

; Function Attrs: nounwind uwtable
define internal i32 @psa_crypto_copy_input(ptr noundef %0, i64 noundef %1, ptr noundef %2, i64 noundef %3) #0 {
  %5 = alloca i32, align 4
  %6 = alloca ptr, align 8
  %7 = alloca i64, align 8
  %8 = alloca ptr, align 8
  %9 = alloca i64, align 8
  store ptr %0, ptr %6, align 8, !tbaa !29
  store i64 %1, ptr %7, align 8, !tbaa !20
  store ptr %2, ptr %8, align 8, !tbaa !29
  store i64 %3, ptr %9, align 8, !tbaa !20
  %10 = load i64, ptr %7, align 8, !tbaa !20
  %11 = load i64, ptr %9, align 8, !tbaa !20
  %12 = icmp ugt i64 %10, %11
  br i1 %12, label %13, label %14

13:                                               ; preds = %4
  store i32 -151, ptr %5, align 4
  br label %22

14:                                               ; preds = %4
  %15 = load i64, ptr %7, align 8, !tbaa !20
  %16 = icmp ugt i64 %15, 0
  br i1 %16, label %17, label %21

17:                                               ; preds = %14
  %18 = load ptr, ptr %8, align 8, !tbaa !29
  %19 = load ptr, ptr %6, align 8, !tbaa !29
  %20 = load i64, ptr %7, align 8, !tbaa !20
  call void @llvm.memcpy.p0.p0.i64(ptr align 1 %18, ptr align 1 %19, i64 %20, i1 false)
  br label %21

21:                                               ; preds = %17, %14
  store i32 0, ptr %5, align 4
  br label %22

22:                                               ; preds = %21, %13
  %23 = load i32, ptr %5, align 4
  ret i32 %23
}

; Function Attrs: nounwind uwtable
define hidden void @psa_crypto_local_input_free(ptr noundef %0) #0 {
  %2 = alloca ptr, align 8
  store ptr %0, ptr %2, align 8, !tbaa !59
  %3 = load ptr, ptr %2, align 8, !tbaa !59
  %4 = getelementptr inbounds nuw %struct.psa_crypto_local_input_s, ptr %3, i32 0, i32 0
  %5 = load ptr, ptr %4, align 8, !tbaa !55
  call void @free(ptr noundef %5) #8
  %6 = load ptr, ptr %2, align 8, !tbaa !59
  %7 = getelementptr inbounds nuw %struct.psa_crypto_local_input_s, ptr %6, i32 0, i32 0
  store ptr null, ptr %7, align 8, !tbaa !55
  %8 = load ptr, ptr %2, align 8, !tbaa !59
  %9 = getelementptr inbounds nuw %struct.psa_crypto_local_input_s, ptr %8, i32 0, i32 1
  store i64 0, ptr %9, align 8, !tbaa !61
  ret void
}

; Function Attrs: nounwind uwtable
define hidden i32 @psa_mac_abort(ptr noundef %0) #0 {
  %2 = alloca i32, align 4
  %3 = alloca ptr, align 8
  %4 = alloca i32, align 4
  store ptr %0, ptr %3, align 8, !tbaa !75
  %5 = load ptr, ptr %3, align 8, !tbaa !75
  %6 = getelementptr inbounds nuw %struct.psa_mac_operation_s, ptr %5, i32 0, i32 0
  %7 = load i32, ptr %6, align 8, !tbaa !77
  %8 = icmp eq i32 %7, 0
  br i1 %8, label %9, label %10

9:                                                ; preds = %1
  store i32 0, ptr %2, align 4
  br label %23

10:                                               ; preds = %1
  call void @llvm.lifetime.start.p0(i64 4, ptr %4) #8
  %11 = load ptr, ptr %3, align 8, !tbaa !75
  %12 = call i32 @psa_driver_wrapper_mac_abort(ptr noundef %11)
  store i32 %12, ptr %4, align 4, !tbaa !3
  %13 = load ptr, ptr %3, align 8, !tbaa !75
  %14 = getelementptr inbounds nuw %struct.psa_mac_operation_s, ptr %13, i32 0, i32 1
  store i8 0, ptr %14, align 4, !tbaa !79
  %15 = load ptr, ptr %3, align 8, !tbaa !75
  %16 = getelementptr inbounds nuw %struct.psa_mac_operation_s, ptr %15, i32 0, i32 2
  %17 = load i8, ptr %16, align 1
  %18 = and i8 %17, -2
  %19 = or i8 %18, 0
  store i8 %19, ptr %16, align 1
  %20 = load ptr, ptr %3, align 8, !tbaa !75
  %21 = getelementptr inbounds nuw %struct.psa_mac_operation_s, ptr %20, i32 0, i32 0
  store i32 0, ptr %21, align 8, !tbaa !77
  %22 = load i32, ptr %4, align 4, !tbaa !3
  store i32 %22, ptr %2, align 4
  call void @llvm.lifetime.end.p0(i64 4, ptr %4) #8
  br label %23

23:                                               ; preds = %10, %9
  %24 = load i32, ptr %2, align 4
  ret i32 %24
}

; Function Attrs: inlinehint nounwind uwtable
define internal i32 @psa_driver_wrapper_mac_verify_finish(ptr noundef %0, ptr noundef %1, i64 noundef %2) #6 {
  %4 = alloca i32, align 4
  %5 = alloca ptr, align 8
  %6 = alloca ptr, align 8
  %7 = alloca i64, align 8
  store ptr %0, ptr %5, align 8, !tbaa !75
  store ptr %1, ptr %6, align 8, !tbaa !29
  store i64 %2, ptr %7, align 8, !tbaa !20
  %8 = load ptr, ptr %5, align 8, !tbaa !75
  %9 = getelementptr inbounds nuw %struct.psa_mac_operation_s, ptr %8, i32 0, i32 0
  %10 = load i32, ptr %9, align 8, !tbaa !77
  switch i32 %10, label %17 [
    i32 1, label %11
  ]

11:                                               ; preds = %3
  %12 = load ptr, ptr %5, align 8, !tbaa !75
  %13 = getelementptr inbounds nuw %struct.psa_mac_operation_s, ptr %12, i32 0, i32 3
  %14 = load ptr, ptr %6, align 8, !tbaa !29
  %15 = load i64, ptr %7, align 8, !tbaa !20
  %16 = call i32 @mbedtls_psa_mac_verify_finish(ptr noundef %13, ptr noundef %14, i64 noundef %15)
  store i32 %16, ptr %4, align 4
  br label %18

17:                                               ; preds = %3
  store i32 -135, ptr %4, align 4
  br label %18

18:                                               ; preds = %17, %11
  %19 = load i32, ptr %4, align 4
  ret i32 %19
}

; Function Attrs: nounwind uwtable
define hidden i32 @psa_crypto_local_input_alloc(ptr noundef %0, i64 noundef %1, ptr noundef %2) #0 {
  %4 = alloca i32, align 4
  %5 = alloca ptr, align 8
  %6 = alloca i64, align 8
  %7 = alloca ptr, align 8
  %8 = alloca i32, align 4
  %9 = alloca %struct.psa_crypto_local_input_s, align 8
  %10 = alloca i32, align 4
  store ptr %0, ptr %5, align 8, !tbaa !29
  store i64 %1, ptr %6, align 8, !tbaa !20
  store ptr %2, ptr %7, align 8, !tbaa !59
  call void @llvm.lifetime.start.p0(i64 4, ptr %8) #8
  %11 = load ptr, ptr %7, align 8, !tbaa !59
  %12 = getelementptr inbounds nuw %struct.psa_crypto_local_input_s, ptr %9, i32 0, i32 0
  store ptr null, ptr %12, align 8, !tbaa !55
  %13 = getelementptr inbounds nuw %struct.psa_crypto_local_input_s, ptr %9, i32 0, i32 1
  store i64 0, ptr %13, align 8, !tbaa !61
  call void @llvm.memcpy.p0.p0.i64(ptr align 8 %11, ptr align 8 %9, i64 16, i1 false), !tbaa.struct !62
  %14 = load i64, ptr %6, align 8, !tbaa !20
  %15 = icmp eq i64 %14, 0
  br i1 %15, label %16, label %17

16:                                               ; preds = %3
  store i32 0, ptr %4, align 4
  store i32 1, ptr %10, align 4
  br label %53

17:                                               ; preds = %3
  %18 = load i64, ptr %6, align 8, !tbaa !20
  %19 = call noalias ptr @calloc(i64 noundef %18, i64 noundef 1) #9
  %20 = load ptr, ptr %7, align 8, !tbaa !59
  %21 = getelementptr inbounds nuw %struct.psa_crypto_local_input_s, ptr %20, i32 0, i32 0
  store ptr %19, ptr %21, align 8, !tbaa !55
  %22 = load ptr, ptr %7, align 8, !tbaa !59
  %23 = getelementptr inbounds nuw %struct.psa_crypto_local_input_s, ptr %22, i32 0, i32 0
  %24 = load ptr, ptr %23, align 8, !tbaa !55
  %25 = icmp eq ptr %24, null
  br i1 %25, label %26, label %27

26:                                               ; preds = %17
  store i32 -141, ptr %4, align 4
  store i32 1, ptr %10, align 4
  br label %53

27:                                               ; preds = %17
  %28 = load i64, ptr %6, align 8, !tbaa !20
  %29 = load ptr, ptr %7, align 8, !tbaa !59
  %30 = getelementptr inbounds nuw %struct.psa_crypto_local_input_s, ptr %29, i32 0, i32 1
  store i64 %28, ptr %30, align 8, !tbaa !61
  %31 = load ptr, ptr %5, align 8, !tbaa !29
  %32 = load i64, ptr %6, align 8, !tbaa !20
  %33 = load ptr, ptr %7, align 8, !tbaa !59
  %34 = getelementptr inbounds nuw %struct.psa_crypto_local_input_s, ptr %33, i32 0, i32 0
  %35 = load ptr, ptr %34, align 8, !tbaa !55
  %36 = load ptr, ptr %7, align 8, !tbaa !59
  %37 = getelementptr inbounds nuw %struct.psa_crypto_local_input_s, ptr %36, i32 0, i32 1
  %38 = load i64, ptr %37, align 8, !tbaa !61
  %39 = call i32 @psa_crypto_copy_input(ptr noundef %31, i64 noundef %32, ptr noundef %35, i64 noundef %38)
  store i32 %39, ptr %8, align 4, !tbaa !3
  %40 = load i32, ptr %8, align 4, !tbaa !3
  %41 = icmp ne i32 %40, 0
  br i1 %41, label %42, label %43

42:                                               ; preds = %27
  br label %44

43:                                               ; preds = %27
  store i32 0, ptr %4, align 4
  store i32 1, ptr %10, align 4
  br label %53

44:                                               ; preds = %42
  %45 = load ptr, ptr %7, align 8, !tbaa !59
  %46 = getelementptr inbounds nuw %struct.psa_crypto_local_input_s, ptr %45, i32 0, i32 0
  %47 = load ptr, ptr %46, align 8, !tbaa !55
  call void @free(ptr noundef %47) #8
  %48 = load ptr, ptr %7, align 8, !tbaa !59
  %49 = getelementptr inbounds nuw %struct.psa_crypto_local_input_s, ptr %48, i32 0, i32 0
  store ptr null, ptr %49, align 8, !tbaa !55
  %50 = load ptr, ptr %7, align 8, !tbaa !59
  %51 = getelementptr inbounds nuw %struct.psa_crypto_local_input_s, ptr %50, i32 0, i32 1
  store i64 0, ptr %51, align 8, !tbaa !61
  %52 = load i32, ptr %8, align 4, !tbaa !3
  store i32 %52, ptr %4, align 4
  store i32 1, ptr %10, align 4
  br label %53

53:                                               ; preds = %44, %43, %26, %16
  call void @llvm.lifetime.end.p0(i64 4, ptr %8) #8
  %54 = load i32, ptr %4, align 4
  ret i32 %54
}

; Function Attrs: nounwind uwtable
define hidden i32 @psa_mac_verify_finish(ptr noundef %0, ptr noundef %1, i64 noundef %2) #0 {
  %4 = alloca ptr, align 8
  %5 = alloca ptr, align 8
  %6 = alloca i64, align 8
  %7 = alloca i32, align 4
  %8 = alloca i32, align 4
  %9 = alloca %struct.psa_crypto_local_input_s, align 8
  %10 = alloca ptr, align 8
  store ptr %0, ptr %4, align 8, !tbaa !75
  store ptr %1, ptr %5, align 8, !tbaa !29
  store i64 %2, ptr %6, align 8, !tbaa !20
  call void @llvm.lifetime.start.p0(i64 4, ptr %7) #8
  store i32 -151, ptr %7, align 4, !tbaa !3
  call void @llvm.lifetime.start.p0(i64 4, ptr %8) #8
  store i32 -151, ptr %8, align 4, !tbaa !3
  call void @llvm.lifetime.start.p0(i64 16, ptr %9) #8
  call void @llvm.memset.p0.i64(ptr align 8 %9, i8 0, i64 16, i1 false)
  call void @llvm.lifetime.start.p0(i64 8, ptr %10) #8
  store ptr null, ptr %10, align 8, !tbaa !29
  %11 = load ptr, ptr %4, align 8, !tbaa !75
  %12 = getelementptr inbounds nuw %struct.psa_mac_operation_s, ptr %11, i32 0, i32 0
  %13 = load i32, ptr %12, align 8, !tbaa !77
  %14 = icmp eq i32 %13, 0
  br i1 %14, label %15, label %16

15:                                               ; preds = %3
  store i32 -137, ptr %7, align 4, !tbaa !3
  br label %46

16:                                               ; preds = %3
  %17 = load ptr, ptr %4, align 8, !tbaa !75
  %18 = getelementptr inbounds nuw %struct.psa_mac_operation_s, ptr %17, i32 0, i32 2
  %19 = load i8, ptr %18, align 1
  %20 = and i8 %19, 1
  %21 = zext i8 %20 to i32
  %22 = icmp ne i32 %21, 0
  br i1 %22, label %23, label %24

23:                                               ; preds = %16
  store i32 -137, ptr %7, align 4, !tbaa !3
  br label %46

24:                                               ; preds = %16
  %25 = load ptr, ptr %4, align 8, !tbaa !75
  %26 = getelementptr inbounds nuw %struct.psa_mac_operation_s, ptr %25, i32 0, i32 1
  %27 = load i8, ptr %26, align 4, !tbaa !79
  %28 = zext i8 %27 to i64
  %29 = load i64, ptr %6, align 8, !tbaa !20
  %30 = icmp ne i64 %28, %29
  br i1 %30, label %31, label %32

31:                                               ; preds = %24
  store i32 -149, ptr %7, align 4, !tbaa !3
  br label %46

32:                                               ; preds = %24
  %33 = load ptr, ptr %5, align 8, !tbaa !29
  %34 = load i64, ptr %6, align 8, !tbaa !20
  %35 = call i32 @psa_crypto_local_input_alloc(ptr noundef %33, i64 noundef %34, ptr noundef %9)
  store i32 %35, ptr %7, align 4, !tbaa !3
  %36 = load i32, ptr %7, align 4, !tbaa !3
  %37 = icmp ne i32 %36, 0
  br i1 %37, label %38, label %39

38:                                               ; preds = %32
  br label %46

39:                                               ; preds = %32
  %40 = getelementptr inbounds nuw %struct.psa_crypto_local_input_s, ptr %9, i32 0, i32 0
  %41 = load ptr, ptr %40, align 8, !tbaa !55
  store ptr %41, ptr %10, align 8, !tbaa !29
  %42 = load ptr, ptr %4, align 8, !tbaa !75
  %43 = load ptr, ptr %10, align 8, !tbaa !29
  %44 = load i64, ptr %6, align 8, !tbaa !20
  %45 = call i32 @psa_driver_wrapper_mac_verify_finish(ptr noundef %42, ptr noundef %43, i64 noundef %44)
  store i32 %45, ptr %7, align 4, !tbaa !3
  br label %46

46:                                               ; preds = %39, %38, %31, %23, %15
  %47 = load ptr, ptr %4, align 8, !tbaa !75
  %48 = call i32 @psa_mac_abort(ptr noundef %47)
  store i32 %48, ptr %8, align 4, !tbaa !3
  store ptr null, ptr %10, align 8, !tbaa !29
  call void @psa_crypto_local_input_free(ptr noundef %9)
  %49 = load i32, ptr %7, align 4, !tbaa !3
  %50 = icmp eq i32 %49, 0
  br i1 %50, label %51, label %53

51:                                               ; preds = %46
  %52 = load i32, ptr %8, align 4, !tbaa !3
  br label %55

53:                                               ; preds = %46
  %54 = load i32, ptr %7, align 4, !tbaa !3
  br label %55

55:                                               ; preds = %53, %51
  %56 = phi i32 [ %52, %51 ], [ %54, %53 ]
  call void @llvm.lifetime.end.p0(i64 8, ptr %10) #8
  call void @llvm.lifetime.end.p0(i64 16, ptr %9) #8
  call void @llvm.lifetime.end.p0(i64 4, ptr %8) #8
  call void @llvm.lifetime.end.p0(i64 4, ptr %7) #8
  ret i32 %56
}