; Function Attrs: nounwind uwtable
define hidden i32 @psa_mac_verify_finish(ptr noundef %0, ptr noundef readonly captures(none) %1, i64 noundef %2) local_unnamed_addr #7 {
  %4 = load i32, ptr %0, align 8, !tbaa !55
  %5 = icmp eq i32 %4, 0
  br i1 %5, label %psa_mac_abort.exit.thread, label %6

6:                                                ; preds = %3
  %7 = getelementptr inbounds nuw i8, ptr %0, i64 5
  %8 = load i8, ptr %7, align 1
  %9 = and i8 %8, 1
  %.not = icmp eq i8 %9, 0
  br i1 %.not, label %10, label %psa_crypto_local_input_alloc.exit

10:                                               ; preds = %6
  %11 = getelementptr inbounds nuw i8, ptr %0, i64 4
  %12 = load i8, ptr %11, align 4, !tbaa !57
  %13 = zext i8 %12 to i64
  %.not15 = icmp eq i64 %2, %13
  br i1 %.not15, label %14, label %psa_crypto_local_input_alloc.exit

14:                                               ; preds = %10
  %15 = icmp eq i64 %2, 0
  br i1 %15, label %20, label %16

16:                                               ; preds = %14
  %17 = tail call noalias ptr @calloc(i64 noundef %2, i64 noundef 1) #21
  %18 = icmp eq ptr %17, null
  br i1 %18, label %psa_crypto_local_input_alloc.exit, label %19

19:                                               ; preds = %16
  tail call void @llvm.memcpy.p0.p0.i64(ptr noundef nonnull align 1 dereferenceable(1) %17, ptr noundef nonnull readonly align 1 dereferenceable(1) %1, i64 range(i64 1, 0) %2, i1 false)
  br label %20

20:                                               ; preds = %14, %19
  %.sroa.0.1.ph = phi ptr [ %17, %19 ], [ null, %14 ]
  %cond.i = icmp eq i32 %4, 1
  br i1 %cond.i, label %21, label %psa_crypto_local_input_alloc.exit

21:                                               ; preds = %20
  %22 = getelementptr inbounds nuw i8, ptr %0, i64 8
  %23 = tail call i32 @mbedtls_psa_mac_verify_finish(ptr noundef nonnull %22, ptr noundef %.sroa.0.1.ph, i64 noundef range(i64 0, 256) %2) #22
  %24 = freeze i32 %23
  %.pr.pre = load i32, ptr %0, align 8, !tbaa !55
  br label %psa_crypto_local_input_alloc.exit

psa_crypto_local_input_alloc.exit:                ; preds = %21, %20, %16, %10, %6
  %.pr = phi i32 [ %.pr.pre, %21 ], [ %4, %20 ], [ %4, %16 ], [ %4, %6 ], [ %4, %10 ]
  %.sroa.0.0.ph = phi ptr [ %.sroa.0.1.ph, %21 ], [ %.sroa.0.1.ph, %20 ], [ null, %16 ], [ null, %6 ], [ null, %10 ]
  %.0.ph = phi i32 [ %24, %21 ], [ -135, %20 ], [ -141, %16 ], [ -137, %6 ], [ -149, %10 ]
  switch i32 %.pr, label %psa_driver_wrapper_mac_abort.exit.i [
    i32 0, label %psa_mac_abort.exit
    i32 1, label %25
  ]

25:                                               ; preds = %psa_crypto_local_input_alloc.exit
  %26 = getelementptr inbounds nuw i8, ptr %0, i64 8
  %27 = tail call i32 @mbedtls_psa_mac_abort(ptr noundef nonnull %26) #22
  br label %psa_driver_wrapper_mac_abort.exit.i

psa_driver_wrapper_mac_abort.exit.i:              ; preds = %25, %psa_crypto_local_input_alloc.exit
  %.0.i.i = phi i32 [ %27, %25 ], [ -135, %psa_crypto_local_input_alloc.exit ]
  %28 = getelementptr inbounds nuw i8, ptr %0, i64 4
  store i8 0, ptr %28, align 4, !tbaa !57
  %29 = load i8, ptr %7, align 1
  %30 = and i8 %29, -2
  store i8 %30, ptr %7, align 1
  store i32 0, ptr %0, align 8, !tbaa !55
  br label %psa_mac_abort.exit

psa_mac_abort.exit:                               ; preds = %psa_crypto_local_input_alloc.exit, %psa_driver_wrapper_mac_abort.exit.i
  %.0.i18 = phi i32 [ %.0.i.i, %psa_driver_wrapper_mac_abort.exit.i ], [ %.pr, %psa_crypto_local_input_alloc.exit ]
  tail call void @free(ptr noundef %.sroa.0.0.ph) #22
  %31 = icmp eq i32 %.0.ph, 0
  %spec.select = select i1 %31, i32 %.0.i18, i32 %.0.ph
  br label %psa_mac_abort.exit.thread

psa_mac_abort.exit.thread:                        ; preds = %psa_mac_abort.exit, %3
  %32 = phi i32 [ -137, %3 ], [ %spec.select, %psa_mac_abort.exit ]
  ret i32 %32
}